target datalayout = "e-m:e-p270:32:32-p271:32:32-p272:64:64-i64:64-i128:128-f80:128-n8:16:32:64-S128"
target triple = "x86_64-pc-linux-gnu"

@.str = private unnamed_addr constant [107 x i8] c"generated/home/dtcxzyw/WorkSpace/Projects/compilers/llvm-opt-benchmark/bench/hdf5/hdf5/src/H5Tinit_float.c\00", align 1
@H5E_DATATYPE_g = external global i64, align 8
@H5E_CANTINIT_g = external global i64, align 8
@__func__.H5T__bit_cmp = private unnamed_addr constant [13 x i8] c"H5T__bit_cmp\00", align 1
@.str.13 = private unnamed_addr constant [26 x i8] c"failure in bit comparison\00", align 1
@.str.14 = private unnamed_addr constant [32 x i8] c"didn't find a value for `first`\00", align 1

; Function Attrs: nounwind uwtable
define internal i32 @H5T__bit_cmp(i32 noundef %0, ptr noundef %1, ptr noundef %2, ptr noundef %3, ptr noundef %4, ptr noundef %5) #0 {
  %7 = alloca i32, align 4
  %8 = alloca ptr, align 8
  %9 = alloca ptr, align 8
  %10 = alloca ptr, align 8
  %11 = alloca ptr, align 8
  %12 = alloca ptr, align 8
  %13 = alloca ptr, align 8
  %14 = alloca ptr, align 8
  %15 = alloca i8, align 1
  %16 = alloca i8, align 1
  %17 = alloca i32, align 4
  %18 = alloca i8, align 1
  %19 = alloca i32, align 4
  %20 = alloca i32, align 4
  store i32 %0, ptr %7, align 4
  store ptr %1, ptr %8, align 8
  store ptr %2, ptr %9, align 8
  store ptr %3, ptr %10, align 8
  store ptr %4, ptr %11, align 8
  store ptr %5, ptr %12, align 8
  %21 = load ptr, ptr %9, align 8
  store ptr %21, ptr %13, align 8
  %22 = load ptr, ptr %10, align 8
  store ptr %22, ptr %14, align 8
  store i32 0, ptr %17, align 4
  store i8 0, ptr %18, align 1
  %23 = load ptr, ptr %12, align 8
  store i32 0, ptr %23, align 4
  store i32 0, ptr %19, align 4
  br label %24

24:                                               ; preds = %133, %6
  %25 = load i32, ptr %19, align 4
  %26 = load i32, ptr %7, align 4
  %27 = icmp ult i32 %25, %26
  br i1 %27, label %28, label %136

28:                                               ; preds = %24
  %29 = load ptr, ptr %8, align 8
  %30 = load i32, ptr %19, align 4
  %31 = zext i32 %30 to i64
  %32 = getelementptr inbounds i32, ptr %29, i64 %31
  %33 = load i32, ptr %32, align 4
  %34 = load i32, ptr %7, align 4
  %35 = icmp sge i32 %33, %34
  br i1 %35, label %36, label %51

36:                                               ; preds = %28
  br label %37

37:                                               ; preds = %36
  br label %38

38:                                               ; preds = %37
  br label %39

39:                                               ; preds = %38
  %40 = load i64, ptr @H5E_DATATYPE_g, align 8
  %41 = load i64, ptr @H5E_CANTINIT_g, align 8
  %42 = call i32 (ptr, ptr, i32, i64, i64, ptr, ...) @H5E_printf_stack(ptr noundef @.str, ptr noundef @__func__.H5T__bit_cmp, i32 noundef 266, i64 noundef %40, i64 noundef %41, ptr noundef @.str.13)
  br label %43

43:                                               ; preds = %39
  store i8 1, ptr %18, align 1
  %44 = load i8, ptr %18, align 1
  %45 = trunc i8 %44 to i1
  %46 = zext i1 %45 to i8
  store i8 %46, ptr %18, align 1
  br label %47

47:                                               ; preds = %43
  br label %48

48:                                               ; preds = %47
  store i32 -1, ptr %17, align 4
  br label %151

49:                                               ; No predecessors!
  br label %50

50:                                               ; preds = %49
  br label %51

51:                                               ; preds = %50, %28
  %52 = load ptr, ptr %13, align 8
  %53 = load ptr, ptr %8, align 8
  %54 = load i32, ptr %19, align 4
  %55 = zext i32 %54 to i64
  %56 = getelementptr inbounds i32, ptr %53, i64 %55
  %57 = load i32, ptr %56, align 4
  %58 = sext i32 %57 to i64
  %59 = getelementptr inbounds i8, ptr %52, i64 %58
  %60 = load i8, ptr %59, align 1
  %61 = zext i8 %60 to i32
  %62 = load ptr, ptr %11, align 8
  %63 = load ptr, ptr %8, align 8
  %64 = load i32, ptr %19, align 4
  %65 = zext i32 %64 to i64
  %66 = getelementptr inbounds i32, ptr %63, i64 %65
  %67 = load i32, ptr %66, align 4
  %68 = sext i32 %67 to i64
  %69 = getelementptr inbounds i8, ptr %62, i64 %68
  %70 = load i8, ptr %69, align 1
  %71 = zext i8 %70 to i32
  %72 = and i32 %61, %71
  %73 = trunc i32 %72 to i8
  store i8 %73, ptr %15, align 1
  %74 = zext i8 %73 to i32
  %75 = load ptr, ptr %14, align 8
  %76 = load ptr, ptr %8, align 8
  %77 = load i32, ptr %19, align 4
  %78 = zext i32 %77 to i64
  %79 = getelementptr inbounds i32, ptr %76, i64 %78
  %80 = load i32, ptr %79, align 4
  %81 = sext i32 %80 to i64
  %82 = getelementptr inbounds i8, ptr %75, i64 %81
  %83 = load i8, ptr %82, align 1
  %84 = zext i8 %83 to i32
  %85 = load ptr, ptr %11, align 8
  %86 = load ptr, ptr %8, align 8
  %87 = load i32, ptr %19, align 4
  %88 = zext i32 %87 to i64
  %89 = getelementptr inbounds i32, ptr %86, i64 %88
  %90 = load i32, ptr %89, align 4
  %91 = sext i32 %90 to i64
  %92 = getelementptr inbounds i8, ptr %85, i64 %91
  %93 = load i8, ptr %92, align 1
  %94 = zext i8 %93 to i32
  %95 = and i32 %84, %94
  %96 = trunc i32 %95 to i8
  store i8 %96, ptr %16, align 1
  %97 = zext i8 %96 to i32
  %98 = icmp ne i32 %74, %97
  br i1 %98, label %99, label %132

99:                                               ; preds = %51
  store i32 0, ptr %20, align 4
  br label %100

100:                                              ; preds = %120, %99
  %101 = load i32, ptr %20, align 4
  %102 = icmp ult i32 %101, 8
  br i1 %102, label %103, label %131

103:                                              ; preds = %100
  %104 = load i8, ptr %15, align 1
  %105 = zext i8 %104 to i32
  %106 = and i32 %105, 1
  %107 = load i8, ptr %16, align 1
  %108 = zext i8 %107 to i32
  %109 = and i32 %108, 1
  %110 = icmp ne i32 %106, %109
  br i1 %110, label %111, label %119

111:                                              ; preds = %103
  %112 = load i32, ptr %19, align 4
  %113 = mul i32 %112, 8
  %114 = load i32, ptr %20, align 4
  %115 = add i32 %113, %114
  %116 = load ptr, ptr %12, align 8
  store i32 %115, ptr %116, align 4
  br label %117

117:                                              ; preds = %111
  store i32 0, ptr %17, align 4
  br label %151

118:                                              ; No predecessors!
  br label %119

119:                                              ; preds = %118, %103
  br label %120

120:                                              ; preds = %119
  %121 = load i32, ptr %20, align 4
  %122 = add i32 %121, 1
  store i32 %122, ptr %20, align 4
  %123 = load i8, ptr %15, align 1
  %124 = zext i8 %123 to i32
  %125 = ashr i32 %124, 1
  %126 = trunc i32 %125 to i8
  store i8 %126, ptr %15, align 1
  %127 = load i8, ptr %16, align 1
  %128 = zext i8 %127 to i32
  %129 = ashr i32 %128, 1
  %130 = trunc i32 %129 to i8
  store i8 %130, ptr %16, align 1
  br label %100

131:                                              ; preds = %100
  br label %132

132:                                              ; preds = %131, %51
  br label %133

133:                                              ; preds = %132
  %134 = load i32, ptr %19, align 4
  %135 = add i32 %134, 1
  store i32 %135, ptr %19, align 4
  br label %24

136:                                              ; preds = %24
  br label %137

137:                                              ; preds = %136
  br label %138

138:                                              ; preds = %137
  br label %139

139:                                              ; preds = %138
  %140 = load i64, ptr @H5E_DATATYPE_g, align 8
  %141 = load i64, ptr @H5E_CANTINIT_g, align 8
  %142 = call i32 (ptr, ptr, i32, i64, i64, ptr, ...) @H5E_printf_stack(ptr noundef @.str, ptr noundef @__func__.H5T__bit_cmp, i32 noundef 280, i64 noundef %140, i64 noundef %141, ptr noundef @.str.14)
  br label %143

143:                                              ; preds = %139
  store i8 1, ptr %18, align 1
  %144 = load i8, ptr %18, align 1
  %145 = trunc i8 %144 to i1
  %146 = zext i1 %145 to i8
  store i8 %146, ptr %18, align 1
  br label %147

147:                                              ; preds = %143
  br label %148

148:                                              ; preds = %147
  store i32 -1, ptr %17, align 4
  br label %151

149:                                              ; No predecessors!
  br label %150

150:                                              ; preds = %149
  br label %151

151:                                              ; preds = %150, %148, %117, %48
  %152 = load i32, ptr %17, align 4
  ret i32 %152
}