; Function Attrs: nounwind uwtable
define internal fastcc range(i32 -1, 1) i32 @H5T__bit_cmp(i32 noundef %0, ptr nocapture noundef readonly %1, ptr nocapture noundef readonly %2, ptr nocapture noundef readonly %3, ptr nocapture noundef readonly %4, ptr nocapture noundef writeonly %5) unnamed_addr #0 {
  store i32 0, ptr %5, align 4
  %.not47 = icmp eq i32 %0, 0
  br i1 %.not47, label %._crit_edge, label %.lr.ph.preheader

.lr.ph.preheader:                                 ; preds = %6
  %wide.trip.count = zext i32 %0 to i64
  br label %.lr.ph

.lr.ph:                                           ; preds = %.lr.ph.preheader, %.loopexit
  %indvars.iv = phi i64 [ 0, %.lr.ph.preheader ], [ %indvars.iv.next, %.loopexit ]
  %7 = getelementptr inbounds i32, ptr %1, i64 %indvars.iv
  %8 = load i32, ptr %7, align 4
  %.not = icmp slt i32 %8, %0
  br i1 %.not, label %13, label %9

9:                                                ; preds = %.lr.ph
  %10 = load i64, ptr @H5E_DATATYPE_g, align 8
  %11 = load i64, ptr @H5E_CANTINIT_g, align 8
  %12 = tail call i32 (ptr, ptr, i32, i64, i64, ptr, ...) @H5E_printf_stack(ptr noundef nonnull @.str, ptr noundef nonnull @__func__.H5T__bit_cmp, i32 noundef 266, i64 noundef %10, i64 noundef %11, ptr noundef nonnull @.str.13) #8
  br label %36

13:                                               ; preds = %.lr.ph
  %14 = sext i32 %8 to i64
  %15 = getelementptr inbounds i8, ptr %2, i64 %14
  %16 = load i8, ptr %15, align 1
  %17 = getelementptr inbounds i8, ptr %4, i64 %14
  %18 = load i8, ptr %17, align 1
  %19 = and i8 %18, %16
  %20 = getelementptr inbounds i8, ptr %3, i64 %14
  %21 = load i8, ptr %20, align 1
  %22 = and i8 %21, %18
  %.not38 = icmp eq i8 %19, %22
  br i1 %.not38, label %.loopexit, label %.preheader

.preheader:                                       ; preds = %13, %29
  %.045 = phi i32 [ %30, %29 ], [ 0, %13 ]
  %.03444 = phi i8 [ %32, %29 ], [ %22, %13 ]
  %.03543 = phi i8 [ %31, %29 ], [ %19, %13 ]
  %23 = xor i8 %.03444, %.03543
  %24 = and i8 %23, 1
  %.not39 = icmp eq i8 %24, 0
  br i1 %.not39, label %29, label %25

25:                                               ; preds = %.preheader
  %26 = trunc nuw nsw i64 %indvars.iv to i32
  %27 = shl nuw nsw i32 %26, 3
  %28 = add nuw nsw i32 %.045, %27
  store i32 %28, ptr %5, align 4
  br label %36

29:                                               ; preds = %.preheader
  %30 = add nuw nsw i32 %.045, 1
  %31 = lshr i8 %.03543, 1
  %32 = lshr i8 %.03444, 1
  %exitcond.not = icmp eq i32 %30, 8
  br i1 %exitcond.not, label %.loopexit, label %.preheader

.loopexit:                                        ; preds = %29, %13
  %indvars.iv.next = add nuw nsw i64 %indvars.iv, 1
  %exitcond52.not = icmp eq i64 %indvars.iv.next, %wide.trip.count
  br i1 %exitcond52.not, label %._crit_edge, label %.lr.ph

._crit_edge:                                      ; preds = %.loopexit, %6
  %33 = load i64, ptr @H5E_DATATYPE_g, align 8
  %34 = load i64, ptr @H5E_CANTINIT_g, align 8
  %35 = tail call i32 (ptr, ptr, i32, i64, i64, ptr, ...) @H5E_printf_stack(ptr noundef nonnull @.str, ptr noundef nonnull @__func__.H5T__bit_cmp, i32 noundef 280, i64 noundef %33, i64 noundef %34, ptr noundef nonnull @.str.14) #8
  br label %36

36:                                               ; preds = %._crit_edge, %25, %9
  %.033 = phi i32 [ -1, %9 ], [ 0, %25 ], [ -1, %._crit_edge ]
  ret i32 %.033
}